; Function Attrs: noreturn nounwind sspstrong uwtable
define void @rsock_syserr_fail_path(i32 noundef %0, ptr noundef %1, i64 noundef %2) local_unnamed_addr #1 {
  %4 = icmp eq i64 %2, 0
  %5 = and i64 %2, 7
  %6 = icmp ne i64 %5, 0
  %7 = or i1 %4, %6
  br i1 %7, label %rbimpl_RB_TYPE_P_fastpath.exit.thread, label %rbimpl_RB_TYPE_P_fastpath.exit

rbimpl_RB_TYPE_P_fastpath.exit:                   ; preds = %3
  %8 = inttoptr i64 %2 to ptr
  %9 = load i64, ptr %8, align 8, !tbaa !12
  %10 = and i64 %9, 31
  %11 = icmp eq i64 %10, 5
  br i1 %11, label %12, label %rbimpl_RB_TYPE_P_fastpath.exit.thread

12:                                               ; preds = %rbimpl_RB_TYPE_P_fastpath.exit
  %13 = tail call i64 (ptr, ...) @rb_sprintf(ptr noundef nonnull @.str.1, ptr noundef %1, i64 noundef %2) #16
  tail call void @rb_syserr_fail_str(i32 noundef %0, i64 noundef %13) #18
  unreachable

rbimpl_RB_TYPE_P_fastpath.exit.thread:            ; preds = %3, %rbimpl_RB_TYPE_P_fastpath.exit
  tail call void @rb_syserr_fail(i32 noundef %0, ptr noundef %1) #18
  unreachable
}